#include <math.h>
#include <stdio.h>
#include <stdlib.h>
#include <string.h>

void main()
{
	char string[6000];
	int i,word=0;
	char c;
	gets(string);
	for(i=0;((c=string[i])!='\0');i++)
	{  if(c!=' ')
		{
			 if(string[i+1]!='\0')
			{word=word+1;
				}
			else if(string[i+1]=='\0')
			printf("%d",word+1);
			
		}
	else	if(c==' ')
	      {if(string[i-1]!=' ')  
	      {	printf("%d,",word);
	      	word=0;}
	      	else ;
	      }
	}
}