; ModuleID = 'source-C-CXX/27/1284.c'
source_filename = "source-C-CXX/27/1284.c"
target datalayout = "e-m:e-p270:32:32-p271:32:32-p272:64:64-i64:64-f80:128-n8:16:32:64-S128"
target triple = "x86_64-pc-linux-gnu"

@.str = private unnamed_addr constant [3 x i8] c"%d\00", align 1
@.str.1 = private unnamed_addr constant [4 x i8] c"%d,\00", align 1

; Function Attrs: nounwind sspstrong uwtable
define dso_local void @main() local_unnamed_addr #0 {
  %1 = alloca [6000 x i8], align 16
  %2 = getelementptr inbounds [6000 x i8], [6000 x i8]* %1, i64 0, i64 0
  call void @llvm.lifetime.start.p0i8(i64 6000, i8* nonnull %2) #4
  %3 = call i32 (i8*, ...) bitcast (i32 (...)* @gets to i32 (i8*, ...)*)(i8* nonnull %2) #4
  br label %4

4:                                                ; preds = %24, %0
  %5 = phi i64 [ %26, %24 ], [ 0, %0 ]
  %6 = phi i32 [ %25, %24 ], [ 0, %0 ]
  %7 = getelementptr inbounds [6000 x i8], [6000 x i8]* %1, i64 0, i64 %5
  %8 = load i8, i8* %7, align 1, !tbaa !5
  switch i8 %8, label %9 [
    i8 0, label %27
    i8 32, label %17
  ]

9:                                                ; preds = %4
  %10 = add nuw nsw i64 %5, 1
  %11 = getelementptr inbounds [6000 x i8], [6000 x i8]* %1, i64 0, i64 %10
  %12 = load i8, i8* %11, align 1, !tbaa !5
  %13 = icmp eq i8 %12, 0
  %14 = add nsw i32 %6, 1
  br i1 %13, label %15, label %24

15:                                               ; preds = %9
  %16 = call i32 (i8*, ...) @printf(i8* nonnull dereferenceable(1) getelementptr inbounds ([3 x i8], [3 x i8]* @.str, i64 0, i64 0), i32 %14)
  br label %24

17:                                               ; preds = %4
  %18 = add nsw i64 %5, -1
  %19 = getelementptr inbounds [6000 x i8], [6000 x i8]* %1, i64 0, i64 %18
  %20 = load i8, i8* %19, align 1, !tbaa !5
  %21 = icmp eq i8 %20, 32
  br i1 %21, label %24, label %22

22:                                               ; preds = %17
  %23 = call i32 (i8*, ...) @printf(i8* nonnull dereferenceable(1) getelementptr inbounds ([4 x i8], [4 x i8]* @.str.1, i64 0, i64 0), i32 %6)
  br label %24

24:                                               ; preds = %9, %15, %22, %17
  %25 = phi i32 [ %6, %15 ], [ 0, %22 ], [ %6, %17 ], [ %14, %9 ]
  %26 = add nuw i64 %5, 1
  br label %4, !llvm.loop !8

27:                                               ; preds = %4
  call void @llvm.lifetime.end.p0i8(i64 6000, i8* nonnull %2) #4
  ret void
}

; Function Attrs: argmemonly mustprogress nofree nosync nounwind willreturn
declare void @llvm.lifetime.start.p0i8(i64 immarg, i8* nocapture) #1

declare i32 @gets(...) local_unnamed_addr #2

; Function Attrs: nofree nounwind
declare noundef i32 @printf(i8* nocapture noundef readonly, ...) local_unnamed_addr #3

; Function Attrs: argmemonly mustprogress nofree nosync nounwind willreturn
declare void @llvm.lifetime.end.p0i8(i64 immarg, i8* nocapture) #1


!llvm.module.flags = !{!0, !1, !2, !3}
!llvm.ident = !{!4}

!0 = !{i32 1, !"wchar_size", i32 4}
!1 = !{i32 7, !"PIC Level", i32 2}
!2 = !{i32 7, !"PIE Level", i32 2}
!3 = !{i32 7, !"uwtable", i32 1}
!4 = !{!"clang version 13.0.0"}
!5 = !{!6, !6, i64 0}
!6 = !{!"omnipotent char", !7, i64 0}
!7 = !{!"Simple C/C++ TBAA"}
!8 = distinct !{!8, !9}
!9 = !{!"llvm.loop.mustprogress"}
